target datalayout = "e-m:e-p270:32:32-p271:32:32-p272:64:64-i64:64-i128:128-f80:128-n8:16:32:64-S128"
target triple = "x86_64-pc-linux-gnu"

%struct.RClass_and_rb_classext_t = type { %struct.RClass, %struct.rb_classext_struct }
%struct.RClass = type { %struct.RBasic, i64, ptr }
%struct.RBasic = type { i64, i64 }
%struct.rb_classext_struct = type { ptr, ptr, ptr, ptr, ptr, i64, ptr, ptr, ptr, ptr, i64, i64, %union.anon, i64, i32, i8, i8, i64 }
%union.anon = type { %struct.anon }
%struct.anon = type { ptr }

@rb_cObject = external global i64, align 8
@.str.16 = private unnamed_addr constant [14 x i8] c"../variable.c\00", align 1
@ruby_single_main_ractor = external global ptr, align 8

; Function Attrs: inlinehint nounwind sspstrong uwtable
define internal zeroext i1 @rb_multi_ractor_p() #6 {
  %1 = alloca i1, align 1
  %2 = load ptr, ptr @ruby_single_main_ractor, align 8, !tbaa !91
  %3 = icmp ne ptr %2, null
  %4 = xor i1 %3, true
  %5 = xor i1 %4, true
  %6 = zext i1 %5 to i32
  %7 = sext i32 %6 to i64
  %8 = call i64 @llvm.expect.i64(i64 %7, i64 1)
  %9 = icmp ne i64 %8, 0
  br i1 %9, label %10, label %11

10:                                               ; preds = %0
  store i1 false, ptr %1, align 1
  br label %12

11:                                               ; preds = %0
  store i1 true, ptr %1, align 1
  br label %12

12:                                               ; preds = %11, %10
  %13 = load i1, ptr %1, align 1
  ret i1 %13
}

; Function Attrs: inlinehint nounwind sspstrong uwtable
define internal void @rb_vm_lock_leave(ptr noundef %0, ptr noundef %1, i32 noundef %2) #6 {
  %4 = alloca ptr, align 8
  %5 = alloca ptr, align 8
  %6 = alloca i32, align 4
  store ptr %0, ptr %4, align 8, !tbaa !98
  store ptr %1, ptr %5, align 8, !tbaa !16
  store i32 %2, ptr %6, align 4, !tbaa !51
  %7 = call zeroext i1 @rb_multi_ractor_p()
  br i1 %7, label %8, label %10

8:                                                ; preds = %3
  %9 = load ptr, ptr %4, align 8, !tbaa !98
  call void @rb_vm_lock_leave_body(ptr noundef %9)
  br label %10

10:                                               ; preds = %8, %3
  ret void
}

; Function Attrs: inlinehint nounwind sspstrong uwtable
define internal void @rb_vm_lock_enter(ptr noundef %0, ptr noundef %1, i32 noundef %2) #6 {
  %4 = alloca ptr, align 8
  %5 = alloca ptr, align 8
  %6 = alloca i32, align 4
  store ptr %0, ptr %4, align 8, !tbaa !98
  store ptr %1, ptr %5, align 8, !tbaa !16
  store i32 %2, ptr %6, align 4, !tbaa !51
  %7 = call zeroext i1 @rb_multi_ractor_p()
  br i1 %7, label %8, label %10

8:                                                ; preds = %3
  %9 = load ptr, ptr %4, align 8, !tbaa !98
  call void @rb_vm_lock_enter_body(ptr noundef %9)
  br label %10

10:                                               ; preds = %8, %3
  ret void
}

; Function Attrs: inlinehint nounwind sspstrong uwtable
define internal i64 @RCLASS_SUPER(i64 noundef %0) #6 {
  %2 = alloca i64, align 8
  store i64 %0, ptr %2, align 8, !tbaa !14
  %3 = load i64, ptr %2, align 8, !tbaa !14
  %4 = inttoptr i64 %3 to ptr
  %5 = getelementptr inbounds nuw %struct.RClass, ptr %4, i32 0, i32 1
  %6 = load i64, ptr %5, align 8, !tbaa !187
  ret i64 %6
}

; Function Attrs: nounwind sspstrong uwtable
define dso_local ptr @rb_mod_const_at(i64 noundef %0, ptr noundef %1) #0 {
  %3 = alloca i64, align 8
  %4 = alloca ptr, align 8
  %5 = alloca ptr, align 8
  %6 = alloca i32, align 4
  store i64 %0, ptr %3, align 8, !tbaa !14
  store ptr %1, ptr %4, align 8, !tbaa !40
  call void @llvm.lifetime.start.p0(i64 8, ptr %5) #30
  %7 = load ptr, ptr %4, align 8, !tbaa !40
  store ptr %7, ptr %5, align 8, !tbaa !12
  %8 = load ptr, ptr %5, align 8, !tbaa !12
  %9 = icmp ne ptr %8, null
  br i1 %9, label %12, label %10

10:                                               ; preds = %2
  %11 = call ptr @rb_st_init_numtable()
  store ptr %11, ptr %5, align 8, !tbaa !12
  br label %12

12:                                               ; preds = %10, %2
  %13 = load i64, ptr %3, align 8, !tbaa !14
  %14 = inttoptr i64 %13 to ptr
  %15 = getelementptr inbounds nuw %struct.RClass_and_rb_classext_t, ptr %14, i32 0, i32 1
  %16 = getelementptr inbounds nuw %struct.rb_classext_struct, ptr %15, i32 0, i32 1
  %17 = load ptr, ptr %16, align 8, !tbaa !163
  %18 = icmp ne ptr %17, null
  br i1 %18, label %19, label %26

19:                                               ; preds = %12
  call void @llvm.lifetime.start.p0(i64 4, ptr %6) #30
  call void @rb_vm_lock_enter(ptr noundef %6, ptr noundef @.str.16, i32 noundef 3337)
  %20 = load i64, ptr %3, align 8, !tbaa !14
  %21 = inttoptr i64 %20 to ptr
  %22 = getelementptr inbounds nuw %struct.RClass_and_rb_classext_t, ptr %21, i32 0, i32 1
  %23 = getelementptr inbounds nuw %struct.rb_classext_struct, ptr %22, i32 0, i32 1
  %24 = load ptr, ptr %23, align 8, !tbaa !163
  %25 = load ptr, ptr %5, align 8, !tbaa !12
  call void @rb_id_table_foreach(ptr noundef %24, ptr noundef @sv_i, ptr noundef %25)
  call void @rb_vm_lock_leave(ptr noundef %6, ptr noundef @.str.16, i32 noundef 3341)
  call void @llvm.lifetime.end.p0(i64 4, ptr %6) #30
  br label %26

26:                                               ; preds = %19, %12
  %27 = load ptr, ptr %5, align 8, !tbaa !12
  call void @llvm.lifetime.end.p0(i64 8, ptr %5) #30
  ret ptr %27
}

; Function Attrs: nounwind sspstrong uwtable
define dso_local ptr @rb_mod_const_of(i64 noundef %0, ptr noundef %1) #0 {
  %3 = alloca i64, align 8
  %4 = alloca ptr, align 8
  %5 = alloca i64, align 8
  store i64 %0, ptr %3, align 8, !tbaa !14
  store ptr %1, ptr %4, align 8, !tbaa !40
  call void @llvm.lifetime.start.p0(i64 8, ptr %5) #30
  %6 = load i64, ptr %3, align 8, !tbaa !14
  store i64 %6, ptr %5, align 8, !tbaa !14
  br label %7

7:                                                ; preds = %25, %2
  %8 = load i64, ptr %5, align 8, !tbaa !14
  %9 = load ptr, ptr %4, align 8, !tbaa !40
  %10 = call ptr @rb_mod_const_at(i64 noundef %8, ptr noundef %9)
  store ptr %10, ptr %4, align 8, !tbaa !40
  %11 = load i64, ptr %5, align 8, !tbaa !14
  %12 = call i64 @RCLASS_SUPER(i64 noundef %11)
  store i64 %12, ptr %5, align 8, !tbaa !14
  %13 = load i64, ptr %5, align 8, !tbaa !14
  %14 = icmp ne i64 %13, 0
  br i1 %14, label %16, label %15

15:                                               ; preds = %7
  br label %26

16:                                               ; preds = %7
  %17 = load i64, ptr %5, align 8, !tbaa !14
  %18 = load i64, ptr @rb_cObject, align 8, !tbaa !14
  %19 = icmp eq i64 %17, %18
  br i1 %19, label %20, label %25

20:                                               ; preds = %16
  %21 = load i64, ptr %3, align 8, !tbaa !14
  %22 = load i64, ptr @rb_cObject, align 8, !tbaa !14
  %23 = icmp ne i64 %21, %22
  br i1 %23, label %24, label %25

24:                                               ; preds = %20
  br label %26

25:                                               ; preds = %20, %16
  br label %7

26:                                               ; preds = %24, %15
  %27 = load ptr, ptr %4, align 8, !tbaa !40
  call void @llvm.lifetime.end.p0(i64 8, ptr %5) #30
  ret ptr %27
}