; Function Attrs: nounwind sspstrong uwtable
define dso_local ptr @rb_mod_const_of(i64 noundef %0, ptr noundef %1) local_unnamed_addr #0 {
  %3 = alloca i32, align 4
  br label %4

4:                                                ; preds = %19, %2
  %.07 = phi ptr [ %1, %2 ], [ %.0.i, %19 ]
  %.0 = phi i64 [ %0, %2 ], [ %18, %19 ]
  %.not.i = icmp eq ptr %.07, null
  br i1 %.not.i, label %5, label %7

5:                                                ; preds = %4
  %6 = call ptr @rb_st_init_numtable() #27
  br label %7

7:                                                ; preds = %5, %4
  %.0.i = phi ptr [ %.07, %4 ], [ %6, %5 ]
  %8 = inttoptr i64 %.0 to ptr
  %9 = getelementptr inbounds nuw i8, ptr %8, i64 40
  %10 = load ptr, ptr %9, align 8, !tbaa !142
  %.not6.i = icmp eq ptr %10, null
  br i1 %.not6.i, label %rb_mod_const_at.exit, label %11

11:                                               ; preds = %7
  call void @llvm.lifetime.start.p0(i64 4, ptr nonnull %3) #27
  %12 = load ptr, ptr @ruby_single_main_ractor, align 8, !tbaa !68
  %.not.i.i.i = icmp eq ptr %12, null
  br i1 %.not.i.i.i, label %13, label %rb_vm_lock_enter.exit.i

13:                                               ; preds = %11
  call void @rb_vm_lock_enter_body(ptr noundef nonnull %3) #27
  %.pre.i = load ptr, ptr %9, align 8, !tbaa !142
  br label %rb_vm_lock_enter.exit.i

rb_vm_lock_enter.exit.i:                          ; preds = %13, %11
  %14 = phi ptr [ %10, %11 ], [ %.pre.i, %13 ]
  call void @rb_id_table_foreach(ptr noundef %14, ptr noundef nonnull @sv_i, ptr noundef %.0.i) #27
  %15 = load ptr, ptr @ruby_single_main_ractor, align 8, !tbaa !68
  %.not.i.i7.i = icmp eq ptr %15, null
  br i1 %.not.i.i7.i, label %16, label %rb_vm_lock_leave.exit.i

16:                                               ; preds = %rb_vm_lock_enter.exit.i
  call void @rb_vm_lock_leave_body(ptr noundef nonnull %3) #27
  br label %rb_vm_lock_leave.exit.i

rb_vm_lock_leave.exit.i:                          ; preds = %16, %rb_vm_lock_enter.exit.i
  call void @llvm.lifetime.end.p0(i64 4, ptr nonnull %3) #27
  br label %rb_mod_const_at.exit

rb_mod_const_at.exit:                             ; preds = %7, %rb_vm_lock_leave.exit.i
  %17 = getelementptr inbounds nuw i8, ptr %8, i64 16
  %18 = load i64, ptr %17, align 8, !tbaa !194
  %.not = icmp eq i64 %18, 0
  br i1 %.not, label %22, label %19

19:                                               ; preds = %rb_mod_const_at.exit
  %20 = load i64, ptr @rb_cObject, align 8, !tbaa !14
  %21 = icmp ne i64 %18, %20
  %.not10 = icmp eq i64 %0, %20
  %or.cond = or i1 %21, %.not10
  br i1 %or.cond, label %4, label %22

22:                                               ; preds = %19, %rb_mod_const_at.exit
  ret ptr %.0.i
}